; Function Attrs: mustprogress nounwind uwtable
define dso_local void @_ZN4node2fs10FileHandle10AfterCloseEv(ptr nocapture noundef nonnull align 8 dereferenceable(160) %this) local_unnamed_addr #3 align 2 {
entry:
  %ref.tmp = alloca %struct.uv_buf_t, align 8
  %closing_ = getelementptr inbounds i8, ptr %this, i64 124
  store i8 0, ptr %closing_, align 4
  %closed_ = getelementptr inbounds i8, ptr %this, i64 125
  store i8 1, ptr %closed_, align 1
  %fd_ = getelementptr inbounds i8, ptr %this, i64 120
  store i32 -1, ptr %fd_, align 8
  %reading_ = getelementptr inbounds i8, ptr %this, i64 126
  %0 = load i8, ptr %reading_, align 2
  %1 = and i8 %0, 1
  %tobool.not = icmp eq i8 %1, 0
  %persistent_handle_.i = getelementptr inbounds i8, ptr %this, i64 8
  %2 = load ptr, ptr %persistent_handle_.i, align 8
  %cmp.i = icmp eq ptr %2, null
  %or.cond = select i1 %tobool.not, i1 true, i1 %cmp.i
  br i1 %or.cond, label %if.end, label %if.then

if.then:                                          ; preds = %entry
  %call3 = tail call { ptr, i64 } @uv_buf_init(ptr noundef null, i32 noundef 0) #30
  %3 = extractvalue { ptr, i64 } %call3, 0
  store ptr %3, ptr %ref.tmp, align 8
  %4 = getelementptr inbounds i8, ptr %ref.tmp, i64 8
  %5 = extractvalue { ptr, i64 } %call3, 1
  store i64 %5, ptr %4, align 8
  %listener_.i = getelementptr inbounds i8, ptr %this, i64 64
  %6 = load ptr, ptr %listener_.i, align 8
  %vtable.i = load ptr, ptr %6, align 8
  %vfn.i = getelementptr inbounds i8, ptr %vtable.i, i64 24
  %7 = load ptr, ptr %vfn.i, align 8
  call void %7(ptr noundef nonnull align 8 dereferenceable(24) %6, i64 noundef -4095, ptr noundef nonnull align 8 dereferenceable(16) %ref.tmp) #30
  br label %if.end

if.end:                                           ; preds = %if.then, %entry
  ret void
}